; ModuleID = '11/743.c'
source_filename = "11/743.c"
target datalayout = "e-m:e-p270:32:32-p271:32:32-p272:64:64-i64:64-f80:128-n8:16:32:64-S128"
target triple = "x86_64-pc-linux-gnu"

@.str = private unnamed_addr constant [7 x i8] c"%d%d%d\00", align 1
@.str.1 = private unnamed_addr constant [3 x i8] c"%d\00", align 1

; Function Attrs: noinline nounwind uwtable
define dso_local i32 @main() #0 {
  %1 = alloca i32, align 4
  %2 = alloca i32, align 4
  %3 = alloca i32, align 4
  %4 = alloca i32, align 4
  %5 = alloca i32, align 4
  %6 = alloca i32, align 4
  store i32 0, i32* %1, align 4
  store i32 0, i32* %5, align 4
  %7 = call i32 (i8*, ...) @__isoc99_scanf(i8* getelementptr inbounds ([7 x i8], [7 x i8]* @.str, i64 0, i64 0), i32* %2, i32* %3, i32* %4)
  store i32 1, i32* %6, align 4
  br label %8

8:                                                ; preds = %73, %0
  %9 = load i32, i32* %6, align 4
  %10 = load i32, i32* %3, align 4
  %11 = icmp slt i32 %9, %10
  br i1 %11, label %12, label %76

12:                                               ; preds = %8
  %13 = load i32, i32* %6, align 4
  %14 = icmp eq i32 %13, 1
  br i1 %14, label %30, label %15

15:                                               ; preds = %12
  %16 = load i32, i32* %6, align 4
  %17 = icmp eq i32 %16, 3
  br i1 %17, label %30, label %18

18:                                               ; preds = %15
  %19 = load i32, i32* %6, align 4
  %20 = icmp eq i32 %19, 5
  br i1 %20, label %30, label %21

21:                                               ; preds = %18
  %22 = load i32, i32* %6, align 4
  %23 = icmp eq i32 %22, 7
  br i1 %23, label %30, label %24

24:                                               ; preds = %21
  %25 = load i32, i32* %6, align 4
  %26 = icmp eq i32 %25, 8
  br i1 %26, label %30, label %27

27:                                               ; preds = %24
  %28 = load i32, i32* %6, align 4
  %29 = icmp eq i32 %28, 10
  br i1 %29, label %30, label %33

30:                                               ; preds = %27, %24, %21, %18, %15, %12
  %31 = load i32, i32* %5, align 4
  %32 = add nsw i32 %31, 31
  store i32 %32, i32* %5, align 4
  br label %72

33:                                               ; preds = %27
  %34 = load i32, i32* %6, align 4
  %35 = icmp eq i32 %34, 4
  br i1 %35, label %45, label %36

36:                                               ; preds = %33
  %37 = load i32, i32* %6, align 4
  %38 = icmp eq i32 %37, 6
  br i1 %38, label %45, label %39

39:                                               ; preds = %36
  %40 = load i32, i32* %6, align 4
  %41 = icmp eq i32 %40, 9
  br i1 %41, label %45, label %42

42:                                               ; preds = %39
  %43 = load i32, i32* %6, align 4
  %44 = icmp eq i32 %43, 11
  br i1 %44, label %45, label %48

45:                                               ; preds = %42, %39, %36, %33
  %46 = load i32, i32* %5, align 4
  %47 = add nsw i32 %46, 30
  store i32 %47, i32* %5, align 4
  br label %71

48:                                               ; preds = %42
  %49 = load i32, i32* %6, align 4
  %50 = icmp eq i32 %49, 2
  br i1 %50, label %51, label %70

51:                                               ; preds = %48
  %52 = load i32, i32* %2, align 4
  %53 = srem i32 %52, 400
  %54 = icmp eq i32 %53, 0
  br i1 %54, label %63, label %55

55:                                               ; preds = %51
  %56 = load i32, i32* %2, align 4
  %57 = srem i32 %56, 4
  %58 = icmp eq i32 %57, 0
  br i1 %58, label %59, label %66

59:                                               ; preds = %55
  %60 = load i32, i32* %2, align 4
  %61 = srem i32 %60, 100
  %62 = icmp ne i32 %61, 0
  br i1 %62, label %63, label %66

63:                                               ; preds = %59, %51
  %64 = load i32, i32* %5, align 4
  %65 = add nsw i32 %64, 29
  store i32 %65, i32* %5, align 4
  br label %69

66:                                               ; preds = %59, %55
  %67 = load i32, i32* %5, align 4
  %68 = add nsw i32 %67, 28
  store i32 %68, i32* %5, align 4
  br label %69

69:                                               ; preds = %66, %63
  br label %70

70:                                               ; preds = %69, %48
  br label %71

71:                                               ; preds = %70, %45
  br label %72

72:                                               ; preds = %71, %30
  br label %73

73:                                               ; preds = %72
  %74 = load i32, i32* %6, align 4
  %75 = add nsw i32 %74, 1
  store i32 %75, i32* %6, align 4
  br label %8

76:                                               ; preds = %8
  %77 = load i32, i32* %4, align 4
  %78 = load i32, i32* %5, align 4
  %79 = add nsw i32 %78, %77
  store i32 %79, i32* %5, align 4
  %80 = load i32, i32* %5, align 4
  %81 = call i32 (i8*, ...) @printf(i8* getelementptr inbounds ([3 x i8], [3 x i8]* @.str.1, i64 0, i64 0), i32 %80)
  ret i32 0
}

declare dso_local i32 @__isoc99_scanf(i8*, ...) #1

declare dso_local i32 @printf(i8*, ...) #1


!llvm.module.flags = !{!0}
!llvm.ident = !{!1}

!0 = !{i32 1, !"wchar_size", i32 4}
!1 = !{!"clang version 10.0.0-4ubuntu1 "}
